target datalayout = "e-m:e-p270:32:32-p271:32:32-p272:64:64-i64:64-i128:128-f80:128-n8:16:32:64-S128"
target triple = "x86_64-pc-linux-gnu"

%struct.OSQPSolver = type { ptr, ptr, ptr, ptr }
%struct.OSQPWorkspace_ = type { ptr, ptr, ptr, ptr, ptr, ptr, ptr, ptr, ptr, ptr, ptr, ptr, ptr, ptr, ptr, ptr, ptr, ptr, ptr, ptr, ptr, ptr, ptr, ptr, ptr, ptr, double, double, double, ptr, i64, i64, i64, i64, ptr }
%struct.OSQPData = type { i64, i64, ptr, ptr, ptr, ptr, ptr }
%struct.OSQPSettings = type { i64, i32, i64, i64, i64, i64, i64, i64, double, i64, double, double, i64, i64, double, i32, i64, i64, double, double, i64, double, double, double, double, i64, i64, double, double, i64 }

; Function Attrs: nounwind uwtable
define void @update_z(ptr noundef %0) #0 {
  %2 = alloca ptr, align 8
  %3 = alloca ptr, align 8
  %4 = alloca ptr, align 8
  store ptr %0, ptr %2, align 8
  %5 = load ptr, ptr %2, align 8
  %6 = getelementptr inbounds %struct.OSQPSolver, ptr %5, i32 0, i32 0
  %7 = load ptr, ptr %6, align 8
  store ptr %7, ptr %3, align 8
  %8 = load ptr, ptr %2, align 8
  %9 = getelementptr inbounds %struct.OSQPSolver, ptr %8, i32 0, i32 3
  %10 = load ptr, ptr %9, align 8
  store ptr %10, ptr %4, align 8
  %11 = load ptr, ptr %3, align 8
  %12 = getelementptr inbounds %struct.OSQPSettings, ptr %11, i32 0, i32 9
  %13 = load i64, ptr %12, align 8
  %14 = icmp ne i64 %13, 0
  br i1 %14, label %15, label %44

15:                                               ; preds = %1
  %16 = load ptr, ptr %4, align 8
  %17 = getelementptr inbounds %struct.OSQPWorkspace_, ptr %16, i32 0, i32 8
  %18 = load ptr, ptr %17, align 8
  %19 = load ptr, ptr %4, align 8
  %20 = getelementptr inbounds %struct.OSQPWorkspace_, ptr %19, i32 0, i32 4
  %21 = load ptr, ptr %20, align 8
  %22 = load ptr, ptr %4, align 8
  %23 = getelementptr inbounds %struct.OSQPWorkspace_, ptr %22, i32 0, i32 7
  %24 = load ptr, ptr %23, align 8
  call void @OSQPVectorf_ew_prod(ptr noundef %18, ptr noundef %21, ptr noundef %24)
  %25 = load ptr, ptr %4, align 8
  %26 = getelementptr inbounds %struct.OSQPWorkspace_, ptr %25, i32 0, i32 8
  %27 = load ptr, ptr %26, align 8
  %28 = load ptr, ptr %4, align 8
  %29 = getelementptr inbounds %struct.OSQPWorkspace_, ptr %28, i32 0, i32 8
  %30 = load ptr, ptr %29, align 8
  %31 = load ptr, ptr %3, align 8
  %32 = getelementptr inbounds %struct.OSQPSettings, ptr %31, i32 0, i32 11
  %33 = load double, ptr %32, align 8
  %34 = load ptr, ptr %4, align 8
  %35 = getelementptr inbounds %struct.OSQPWorkspace_, ptr %34, i32 0, i32 11
  %36 = load ptr, ptr %35, align 8
  %37 = load ptr, ptr %3, align 8
  %38 = getelementptr inbounds %struct.OSQPSettings, ptr %37, i32 0, i32 11
  %39 = load double, ptr %38, align 8
  %40 = fsub double 1.000000e+00, %39
  %41 = load ptr, ptr %4, align 8
  %42 = getelementptr inbounds %struct.OSQPWorkspace_, ptr %41, i32 0, i32 13
  %43 = load ptr, ptr %42, align 8
  call void @OSQPVectorf_add_scaled3(ptr noundef %27, double noundef 1.000000e+00, ptr noundef %30, double noundef %33, ptr noundef %36, double noundef %40, ptr noundef %43)
  br label %67

44:                                               ; preds = %1
  %45 = load ptr, ptr %4, align 8
  %46 = getelementptr inbounds %struct.OSQPWorkspace_, ptr %45, i32 0, i32 8
  %47 = load ptr, ptr %46, align 8
  %48 = load ptr, ptr %3, align 8
  %49 = getelementptr inbounds %struct.OSQPSettings, ptr %48, i32 0, i32 11
  %50 = load double, ptr %49, align 8
  %51 = load ptr, ptr %4, align 8
  %52 = getelementptr inbounds %struct.OSQPWorkspace_, ptr %51, i32 0, i32 11
  %53 = load ptr, ptr %52, align 8
  %54 = load ptr, ptr %3, align 8
  %55 = getelementptr inbounds %struct.OSQPSettings, ptr %54, i32 0, i32 11
  %56 = load double, ptr %55, align 8
  %57 = fsub double 1.000000e+00, %56
  %58 = load ptr, ptr %4, align 8
  %59 = getelementptr inbounds %struct.OSQPWorkspace_, ptr %58, i32 0, i32 13
  %60 = load ptr, ptr %59, align 8
  %61 = load ptr, ptr %4, align 8
  %62 = getelementptr inbounds %struct.OSQPWorkspace_, ptr %61, i32 0, i32 28
  %63 = load double, ptr %62, align 8
  %64 = load ptr, ptr %4, align 8
  %65 = getelementptr inbounds %struct.OSQPWorkspace_, ptr %64, i32 0, i32 7
  %66 = load ptr, ptr %65, align 8
  call void @OSQPVectorf_add_scaled3(ptr noundef %47, double noundef %50, ptr noundef %53, double noundef %57, ptr noundef %60, double noundef %63, ptr noundef %66)
  br label %67

67:                                               ; preds = %44, %15
  %68 = load ptr, ptr %4, align 8
  %69 = getelementptr inbounds %struct.OSQPWorkspace_, ptr %68, i32 0, i32 8
  %70 = load ptr, ptr %69, align 8
  %71 = load ptr, ptr %4, align 8
  %72 = getelementptr inbounds %struct.OSQPWorkspace_, ptr %71, i32 0, i32 8
  %73 = load ptr, ptr %72, align 8
  %74 = load ptr, ptr %4, align 8
  %75 = getelementptr inbounds %struct.OSQPWorkspace_, ptr %74, i32 0, i32 0
  %76 = load ptr, ptr %75, align 8
  %77 = getelementptr inbounds %struct.OSQPData, ptr %76, i32 0, i32 5
  %78 = load ptr, ptr %77, align 8
  %79 = load ptr, ptr %4, align 8
  %80 = getelementptr inbounds %struct.OSQPWorkspace_, ptr %79, i32 0, i32 0
  %81 = load ptr, ptr %80, align 8
  %82 = getelementptr inbounds %struct.OSQPData, ptr %81, i32 0, i32 6
  %83 = load ptr, ptr %82, align 8
  call void @OSQPVectorf_ew_bound_vec(ptr noundef %70, ptr noundef %73, ptr noundef %78, ptr noundef %83)
  ret void
}