; Function Attrs: nounwind uwtable
define void @update_z(ptr noundef readonly captures(none) %0) local_unnamed_addr #0 {
  %2 = load ptr, ptr %0, align 8
  %3 = getelementptr inbounds nuw i8, ptr %0, i64 24
  %4 = load ptr, ptr %3, align 8
  %5 = getelementptr inbounds nuw i8, ptr %2, i64 72
  %6 = load i64, ptr %5, align 8
  %.not = icmp eq i64 %6, 0
  %7 = getelementptr inbounds nuw i8, ptr %4, i64 64
  %8 = load ptr, ptr %7, align 8
  br i1 %.not, label %22, label %9

9:                                                ; preds = %1
  %10 = getelementptr inbounds nuw i8, ptr %4, i64 32
  %11 = load ptr, ptr %10, align 8
  %12 = getelementptr inbounds nuw i8, ptr %4, i64 56
  %13 = load ptr, ptr %12, align 8
  tail call void @OSQPVectorf_ew_prod(ptr noundef %8, ptr noundef %11, ptr noundef %13) #9
  %14 = load ptr, ptr %7, align 8
  %15 = getelementptr inbounds nuw i8, ptr %2, i64 88
  %16 = load double, ptr %15, align 8
  %17 = getelementptr inbounds nuw i8, ptr %4, i64 88
  %18 = load ptr, ptr %17, align 8
  %19 = fsub double 1.000000e+00, %16
  %20 = getelementptr inbounds nuw i8, ptr %4, i64 104
  %21 = load ptr, ptr %20, align 8
  tail call void @OSQPVectorf_add_scaled3(ptr noundef %14, double noundef 1.000000e+00, ptr noundef %14, double noundef %16, ptr noundef %18, double noundef %19, ptr noundef %21) #9
  br label %34

22:                                               ; preds = %1
  %23 = getelementptr inbounds nuw i8, ptr %2, i64 88
  %24 = load double, ptr %23, align 8
  %25 = getelementptr inbounds nuw i8, ptr %4, i64 88
  %26 = load ptr, ptr %25, align 8
  %27 = fsub double 1.000000e+00, %24
  %28 = getelementptr inbounds nuw i8, ptr %4, i64 104
  %29 = load ptr, ptr %28, align 8
  %30 = getelementptr inbounds nuw i8, ptr %4, i64 224
  %31 = load double, ptr %30, align 8
  %32 = getelementptr inbounds nuw i8, ptr %4, i64 56
  %33 = load ptr, ptr %32, align 8
  tail call void @OSQPVectorf_add_scaled3(ptr noundef %8, double noundef %24, ptr noundef %26, double noundef %27, ptr noundef %29, double noundef %31, ptr noundef %33) #9
  br label %34

34:                                               ; preds = %22, %9
  %35 = getelementptr inbounds nuw i8, ptr %4, i64 64
  %36 = load ptr, ptr %35, align 8
  %37 = load ptr, ptr %4, align 8
  %38 = getelementptr inbounds nuw i8, ptr %37, i64 40
  %39 = load ptr, ptr %38, align 8
  %40 = getelementptr inbounds nuw i8, ptr %37, i64 48
  %41 = load ptr, ptr %40, align 8
  tail call void @OSQPVectorf_ew_bound_vec(ptr noundef %36, ptr noundef %36, ptr noundef %39, ptr noundef %41) #9
  ret void
}